target datalayout = "e-m:e-p270:32:32-p271:32:32-p272:64:64-i64:64-i128:128-f80:128-n8:16:32:64-S128"
target triple = "x86_64-pc-linux-gnu"

%"class.std::basic_string_view" = type { i64, ptr }

@_ZN6evmoneL9EOF_MAGICE = internal constant %"class.std::basic_string_view" { i64 2, ptr @_ZN6evmoneL15EOF_MAGIC_BYTESE }, align 8
@.str.42 = private unnamed_addr constant [26 x i8] c"basic_string_view::substr\00", align 1
@.str.43 = private unnamed_addr constant [49 x i8] c"%s: __pos (which is %zu) > __size (which is %zu)\00", align 1

; Function Attrs: mustprogress nounwind uwtable
define linkonce_odr hidden noundef zeroext i1 @_ZN4evmc11byte_traitsIhE2ltEhh(i8 noundef zeroext %0, i8 noundef zeroext %1) #0 comdat align 2 {
  %3 = alloca i8, align 1
  %4 = alloca i8, align 1
  store i8 %0, ptr %3, align 1, !tbaa !29
  store i8 %1, ptr %4, align 1, !tbaa !29
  %5 = load i8, ptr %3, align 1, !tbaa !29
  %6 = zext i8 %5 to i32
  %7 = load i8, ptr %4, align 1, !tbaa !29
  %8 = zext i8 %7 to i32
  %9 = icmp slt i32 %6, %8
  ret i1 %9
}

; Function Attrs: mustprogress nounwind uwtable
define linkonce_odr hidden noundef i32 @_ZNSt17basic_string_viewIhN4evmc11byte_traitsIhEEE10_S_compareEmm(i64 noundef %0, i64 noundef %1) #0 comdat align 2 {
  %3 = alloca i32, align 4
  %4 = alloca i64, align 8
  %5 = alloca i64, align 8
  %6 = alloca i64, align 8
  %7 = alloca i32, align 4
  store i64 %0, ptr %4, align 8, !tbaa !8
  store i64 %1, ptr %5, align 8, !tbaa !8
  call void @llvm.lifetime.start.p0(ptr %6) #15
  %8 = load i64, ptr %4, align 8, !tbaa !8
  %9 = load i64, ptr %5, align 8, !tbaa !8
  %10 = sub i64 %8, %9
  store i64 %10, ptr %6, align 8, !tbaa !8
  %11 = load i64, ptr %6, align 8, !tbaa !8
  %12 = icmp sgt i64 %11, 2147483647
  br i1 %12, label %13, label %14

13:                                               ; preds = %2
  store i32 2147483647, ptr %3, align 4
  store i32 1, ptr %7, align 4
  br label %21

14:                                               ; preds = %2
  %15 = load i64, ptr %6, align 8, !tbaa !8
  %16 = icmp slt i64 %15, -2147483648
  br i1 %16, label %17, label %18

17:                                               ; preds = %14
  store i32 -2147483648, ptr %3, align 4
  store i32 1, ptr %7, align 4
  br label %21

18:                                               ; preds = %14
  %19 = load i64, ptr %6, align 8, !tbaa !8
  %20 = trunc i64 %19 to i32
  store i32 %20, ptr %3, align 4
  store i32 1, ptr %7, align 4
  br label %21

21:                                               ; preds = %18, %17, %13
  call void @llvm.lifetime.end.p0(ptr %6) #15
  %22 = load i32, ptr %3, align 4
  ret i32 %22
}

; Function Attrs: mustprogress nounwind uwtable
define linkonce_odr hidden noundef i32 @_ZN4evmc11byte_traitsIhE7compareEPKhS3_m(ptr noundef %0, ptr noundef %1, i64 noundef %2) #0 comdat align 2 {
  %4 = alloca i32, align 4
  %5 = alloca ptr, align 8
  %6 = alloca ptr, align 8
  %7 = alloca i64, align 8
  store ptr %0, ptr %5, align 8, !tbaa !27
  store ptr %1, ptr %6, align 8, !tbaa !27
  store i64 %2, ptr %7, align 8, !tbaa !8
  br label %8

8:                                                ; preds = %26, %3
  %9 = load i64, ptr %7, align 8, !tbaa !8
  %10 = icmp ne i64 %9, 0
  br i1 %10, label %11, label %33

11:                                               ; preds = %8
  %12 = load ptr, ptr %5, align 8, !tbaa !27
  %13 = load i8, ptr %12, align 1, !tbaa !29
  %14 = load ptr, ptr %6, align 8, !tbaa !27
  %15 = load i8, ptr %14, align 1, !tbaa !29
  %16 = call noundef zeroext i1 @_ZN4evmc11byte_traitsIhE2ltEhh(i8 noundef zeroext %13, i8 noundef zeroext %15)
  br i1 %16, label %17, label %18

17:                                               ; preds = %11
  store i32 -1, ptr %4, align 4
  br label %34

18:                                               ; preds = %11
  %19 = load ptr, ptr %6, align 8, !tbaa !27
  %20 = load i8, ptr %19, align 1, !tbaa !29
  %21 = load ptr, ptr %5, align 8, !tbaa !27
  %22 = load i8, ptr %21, align 1, !tbaa !29
  %23 = call noundef zeroext i1 @_ZN4evmc11byte_traitsIhE2ltEhh(i8 noundef zeroext %20, i8 noundef zeroext %22)
  br i1 %23, label %24, label %25

24:                                               ; preds = %18
  store i32 1, ptr %4, align 4
  br label %34

25:                                               ; preds = %18
  br label %26

26:                                               ; preds = %25
  %27 = load i64, ptr %7, align 8, !tbaa !8
  %28 = add i64 %27, -1
  store i64 %28, ptr %7, align 8, !tbaa !8
  %29 = load ptr, ptr %5, align 8, !tbaa !27
  %30 = getelementptr inbounds nuw i8, ptr %29, i32 1
  store ptr %30, ptr %5, align 8, !tbaa !27
  %31 = load ptr, ptr %6, align 8, !tbaa !27
  %32 = getelementptr inbounds nuw i8, ptr %31, i32 1
  store ptr %32, ptr %6, align 8, !tbaa !27
  br label %8, !llvm.loop !119

33:                                               ; preds = %8
  store i32 0, ptr %4, align 4
  br label %34

34:                                               ; preds = %33, %24, %17
  %35 = load i32, ptr %4, align 4
  ret i32 %35
}

; Function Attrs: mustprogress nounwind uwtable
define linkonce_odr hidden noundef i32 @_ZNKSt17basic_string_viewIhN4evmc11byte_traitsIhEEE7compareES3_(ptr noundef nonnull align 8 dereferenceable(16) %0, i64 %1, ptr %2) #0 comdat align 2 {
  %4 = alloca %"class.std::basic_string_view", align 8
  %5 = alloca ptr, align 8
  %6 = alloca i64, align 8
  %7 = alloca i32, align 4
  %8 = getelementptr inbounds nuw { i64, ptr }, ptr %4, i32 0, i32 0
  store i64 %1, ptr %8, align 8
  %9 = getelementptr inbounds nuw { i64, ptr }, ptr %4, i32 0, i32 1
  store ptr %2, ptr %9, align 8
  store ptr %0, ptr %5, align 8, !tbaa !22
  %10 = load ptr, ptr %5, align 8
  call void @llvm.lifetime.start.p0(ptr %6) #15
  %11 = getelementptr inbounds nuw %"class.std::basic_string_view", ptr %10, i32 0, i32 0
  %12 = getelementptr inbounds nuw %"class.std::basic_string_view", ptr %4, i32 0, i32 0
  %13 = call noundef nonnull align 8 dereferenceable(8) ptr @_ZSt3minImERKT_S2_S2_(ptr noundef nonnull align 8 dereferenceable(8) %11, ptr noundef nonnull align 8 dereferenceable(8) %12)
  %14 = load i64, ptr %13, align 8, !tbaa !8
  store i64 %14, ptr %6, align 8, !tbaa !8
  call void @llvm.lifetime.start.p0(ptr %7) #15
  %15 = getelementptr inbounds nuw %"class.std::basic_string_view", ptr %10, i32 0, i32 1
  %16 = load ptr, ptr %15, align 8, !tbaa !54
  %17 = getelementptr inbounds nuw %"class.std::basic_string_view", ptr %4, i32 0, i32 1
  %18 = load ptr, ptr %17, align 8, !tbaa !54
  %19 = load i64, ptr %6, align 8, !tbaa !8
  %20 = call noundef i32 @_ZN4evmc11byte_traitsIhE7compareEPKhS3_m(ptr noundef %16, ptr noundef %18, i64 noundef %19)
  store i32 %20, ptr %7, align 4, !tbaa !34
  %21 = load i32, ptr %7, align 4, !tbaa !34
  %22 = icmp eq i32 %21, 0
  br i1 %22, label %23, label %29

23:                                               ; preds = %3
  %24 = getelementptr inbounds nuw %"class.std::basic_string_view", ptr %10, i32 0, i32 0
  %25 = load i64, ptr %24, align 8, !tbaa !77
  %26 = getelementptr inbounds nuw %"class.std::basic_string_view", ptr %4, i32 0, i32 0
  %27 = load i64, ptr %26, align 8, !tbaa !77
  %28 = call noundef i32 @_ZNSt17basic_string_viewIhN4evmc11byte_traitsIhEEE10_S_compareEmm(i64 noundef %25, i64 noundef %27) #15
  store i32 %28, ptr %7, align 4, !tbaa !34
  br label %29

29:                                               ; preds = %23, %3
  %30 = load i32, ptr %7, align 4, !tbaa !34
  call void @llvm.lifetime.end.p0(ptr %7) #15
  call void @llvm.lifetime.end.p0(ptr %6) #15
  ret i32 %30
}

; Function Attrs: mustprogress nounwind uwtable
define linkonce_odr hidden void @_ZNSt17basic_string_viewIhN4evmc11byte_traitsIhEEEC2EPKhm(ptr noundef nonnull align 8 dereferenceable(16) %0, ptr noundef %1, i64 noundef %2) unnamed_addr #0 comdat align 2 {
  %4 = alloca ptr, align 8
  %5 = alloca ptr, align 8
  %6 = alloca i64, align 8
  store ptr %0, ptr %4, align 8, !tbaa !22
  store ptr %1, ptr %5, align 8, !tbaa !27
  store i64 %2, ptr %6, align 8, !tbaa !8
  %7 = load ptr, ptr %4, align 8
  %8 = getelementptr inbounds nuw %"class.std::basic_string_view", ptr %7, i32 0, i32 0
  %9 = load i64, ptr %6, align 8, !tbaa !8
  store i64 %9, ptr %8, align 8, !tbaa !77
  %10 = getelementptr inbounds nuw %"class.std::basic_string_view", ptr %7, i32 0, i32 1
  %11 = load ptr, ptr %5, align 8, !tbaa !27
  store ptr %11, ptr %10, align 8, !tbaa !54
  ret void
}

; Function Attrs: inlinehint mustprogress nounwind uwtable
define linkonce_odr noundef nonnull align 8 dereferenceable(8) ptr @_ZSt3minImERKT_S2_S2_(ptr noundef nonnull align 8 dereferenceable(8) %0, ptr noundef nonnull align 8 dereferenceable(8) %1) #3 comdat {
  %3 = alloca ptr, align 8
  %4 = alloca ptr, align 8
  %5 = alloca ptr, align 8
  store ptr %0, ptr %4, align 8, !tbaa !117
  store ptr %1, ptr %5, align 8, !tbaa !117
  %6 = load ptr, ptr %5, align 8, !tbaa !117, !nonnull !24, !align !25
  %7 = load i64, ptr %6, align 8, !tbaa !8
  %8 = load ptr, ptr %4, align 8, !tbaa !117, !nonnull !24, !align !25
  %9 = load i64, ptr %8, align 8, !tbaa !8
  %10 = icmp ult i64 %7, %9
  br i1 %10, label %11, label %13

11:                                               ; preds = %2
  %12 = load ptr, ptr %5, align 8, !tbaa !117, !nonnull !24, !align !25
  store ptr %12, ptr %3, align 8
  br label %15

13:                                               ; preds = %2
  %14 = load ptr, ptr %4, align 8, !tbaa !117, !nonnull !24, !align !25
  store ptr %14, ptr %3, align 8
  br label %15

15:                                               ; preds = %13, %11
  %16 = load ptr, ptr %3, align 8
  ret ptr %16
}

; Function Attrs: mustprogress nounwind uwtable
define linkonce_odr noundef i64 @_ZSt10__sv_checkmmPKc(i64 noundef %0, i64 noundef %1, ptr noundef %2) #0 comdat {
  %4 = alloca i64, align 8
  %5 = alloca i64, align 8
  %6 = alloca ptr, align 8
  store i64 %0, ptr %4, align 8, !tbaa !8
  store i64 %1, ptr %5, align 8, !tbaa !8
  store ptr %2, ptr %6, align 8, !tbaa !27
  %7 = load i64, ptr %5, align 8, !tbaa !8
  %8 = load i64, ptr %4, align 8, !tbaa !8
  %9 = icmp ugt i64 %7, %8
  br i1 %9, label %10, label %14

10:                                               ; preds = %3
  %11 = load ptr, ptr %6, align 8, !tbaa !27
  %12 = load i64, ptr %5, align 8, !tbaa !8
  %13 = load i64, ptr %4, align 8, !tbaa !8
  call void (ptr, ...) @_ZSt24__throw_out_of_range_fmtPKcz(ptr noundef @.str.43, ptr noundef %11, i64 noundef %12, i64 noundef %13) #16
  unreachable

14:                                               ; preds = %3
  %15 = load i64, ptr %5, align 8, !tbaa !8
  ret i64 %15
}

; Function Attrs: mustprogress nounwind uwtable
define linkonce_odr hidden noundef zeroext i1 @_ZSteqIhN4evmc11byte_traitsIhEEEbSt17basic_string_viewIT_T0_ES6_(i64 %0, ptr %1, i64 %2, ptr %3) #0 comdat {
  %5 = alloca %"class.std::basic_string_view", align 8
  %6 = alloca %"class.std::basic_string_view", align 8
  %7 = alloca %"class.std::basic_string_view", align 8
  %8 = getelementptr inbounds nuw { i64, ptr }, ptr %5, i32 0, i32 0
  store i64 %0, ptr %8, align 8
  %9 = getelementptr inbounds nuw { i64, ptr }, ptr %5, i32 0, i32 1
  store ptr %1, ptr %9, align 8
  %10 = getelementptr inbounds nuw { i64, ptr }, ptr %6, i32 0, i32 0
  store i64 %2, ptr %10, align 8
  %11 = getelementptr inbounds nuw { i64, ptr }, ptr %6, i32 0, i32 1
  store ptr %3, ptr %11, align 8
  %12 = call noundef i64 @_ZNKSt17basic_string_viewIhN4evmc11byte_traitsIhEEE4sizeEv(ptr noundef nonnull align 8 dereferenceable(16) %5) #15
  %13 = call noundef i64 @_ZNKSt17basic_string_viewIhN4evmc11byte_traitsIhEEE4sizeEv(ptr noundef nonnull align 8 dereferenceable(16) %6) #15
  %14 = icmp eq i64 %12, %13
  br i1 %14, label %15, label %22

15:                                               ; preds = %4
  call void @llvm.memcpy.p0.p0.i64(ptr align 8 %7, ptr align 8 %6, i64 16, i1 false), !tbaa.struct !26
  %16 = getelementptr inbounds nuw { i64, ptr }, ptr %7, i32 0, i32 0
  %17 = load i64, ptr %16, align 8
  %18 = getelementptr inbounds nuw { i64, ptr }, ptr %7, i32 0, i32 1
  %19 = load ptr, ptr %18, align 8
  %20 = call noundef i32 @_ZNKSt17basic_string_viewIhN4evmc11byte_traitsIhEEE7compareES3_(ptr noundef nonnull align 8 dereferenceable(16) %5, i64 %17, ptr %19) #15
  %21 = icmp eq i32 %20, 0
  br label %22

22:                                               ; preds = %15, %4
  %23 = phi i1 [ false, %4 ], [ %21, %15 ]
  ret i1 %23
}

; Function Attrs: mustprogress nounwind uwtable
define linkonce_odr hidden { i64, ptr } @_ZNKSt17basic_string_viewIhN4evmc11byte_traitsIhEEE6substrEmm(ptr noundef nonnull align 8 dereferenceable(16) %0, i64 noundef %1, i64 noundef %2) #0 comdat align 2 {
  %4 = alloca %"class.std::basic_string_view", align 8
  %5 = alloca ptr, align 8
  %6 = alloca i64, align 8
  %7 = alloca i64, align 8
  %8 = alloca i64, align 8
  %9 = alloca i64, align 8
  store ptr %0, ptr %5, align 8, !tbaa !22
  store i64 %1, ptr %6, align 8, !tbaa !8
  store i64 %2, ptr %7, align 8, !tbaa !8
  %10 = load ptr, ptr %5, align 8
  %11 = call noundef i64 @_ZNKSt17basic_string_viewIhN4evmc11byte_traitsIhEEE4sizeEv(ptr noundef nonnull align 8 dereferenceable(16) %10) #15
  %12 = load i64, ptr %6, align 8, !tbaa !8
  %13 = call noundef i64 @_ZSt10__sv_checkmmPKc(i64 noundef %11, i64 noundef %12, ptr noundef @.str.42)
  store i64 %13, ptr %6, align 8, !tbaa !8
  call void @llvm.lifetime.start.p0(ptr %8) #15
  call void @llvm.lifetime.start.p0(ptr %9) #15
  %14 = getelementptr inbounds nuw %"class.std::basic_string_view", ptr %10, i32 0, i32 0
  %15 = load i64, ptr %14, align 8, !tbaa !77
  %16 = load i64, ptr %6, align 8, !tbaa !8
  %17 = sub i64 %15, %16
  store i64 %17, ptr %9, align 8, !tbaa !8
  %18 = call noundef nonnull align 8 dereferenceable(8) ptr @_ZSt3minImERKT_S2_S2_(ptr noundef nonnull align 8 dereferenceable(8) %7, ptr noundef nonnull align 8 dereferenceable(8) %9)
  %19 = load i64, ptr %18, align 8, !tbaa !8
  call void @llvm.lifetime.end.p0(ptr %9) #15
  store i64 %19, ptr %8, align 8, !tbaa !8
  %20 = getelementptr inbounds nuw %"class.std::basic_string_view", ptr %10, i32 0, i32 1
  %21 = load ptr, ptr %20, align 8, !tbaa !54
  %22 = load i64, ptr %6, align 8, !tbaa !8
  %23 = getelementptr inbounds nuw i8, ptr %21, i64 %22
  %24 = load i64, ptr %8, align 8, !tbaa !8
  call void @_ZNSt17basic_string_viewIhN4evmc11byte_traitsIhEEEC2EPKhm(ptr noundef nonnull align 8 dereferenceable(16) %4, ptr noundef %23, i64 noundef %24) #15
  call void @llvm.lifetime.end.p0(ptr %8) #15
  %25 = load { i64, ptr }, ptr %4, align 8
  ret { i64, ptr } %25
}

; Function Attrs: mustprogress nounwind uwtable
define linkonce_odr hidden noundef zeroext i1 @_ZNKSt17basic_string_viewIhN4evmc11byte_traitsIhEEE11starts_withES3_(ptr noundef nonnull align 8 dereferenceable(16) %0, i64 %1, ptr %2) #0 comdat align 2 {
  %4 = alloca %"class.std::basic_string_view", align 8
  %5 = alloca ptr, align 8
  %6 = alloca %"class.std::basic_string_view", align 8
  %7 = alloca %"class.std::basic_string_view", align 8
  %8 = getelementptr inbounds nuw { i64, ptr }, ptr %4, i32 0, i32 0
  store i64 %1, ptr %8, align 8
  %9 = getelementptr inbounds nuw { i64, ptr }, ptr %4, i32 0, i32 1
  store ptr %2, ptr %9, align 8
  store ptr %0, ptr %5, align 8, !tbaa !22
  %10 = load ptr, ptr %5, align 8
  %11 = call noundef i64 @_ZNKSt17basic_string_viewIhN4evmc11byte_traitsIhEEE4sizeEv(ptr noundef nonnull align 8 dereferenceable(16) %4) #15
  %12 = call { i64, ptr } @_ZNKSt17basic_string_viewIhN4evmc11byte_traitsIhEEE6substrEmm(ptr noundef nonnull align 8 dereferenceable(16) %10, i64 noundef 0, i64 noundef %11)
  %13 = getelementptr inbounds nuw { i64, ptr }, ptr %6, i32 0, i32 0
  %14 = extractvalue { i64, ptr } %12, 0
  store i64 %14, ptr %13, align 8
  %15 = getelementptr inbounds nuw { i64, ptr }, ptr %6, i32 0, i32 1
  %16 = extractvalue { i64, ptr } %12, 1
  store ptr %16, ptr %15, align 8
  call void @llvm.memcpy.p0.p0.i64(ptr align 8 %7, ptr align 8 %4, i64 16, i1 false), !tbaa.struct !26
  %17 = getelementptr inbounds nuw { i64, ptr }, ptr %6, i32 0, i32 0
  %18 = load i64, ptr %17, align 8
  %19 = getelementptr inbounds nuw { i64, ptr }, ptr %6, i32 0, i32 1
  %20 = load ptr, ptr %19, align 8
  %21 = getelementptr inbounds nuw { i64, ptr }, ptr %7, i32 0, i32 0
  %22 = load i64, ptr %21, align 8
  %23 = getelementptr inbounds nuw { i64, ptr }, ptr %7, i32 0, i32 1
  %24 = load ptr, ptr %23, align 8
  %25 = call noundef zeroext i1 @_ZSteqIhN4evmc11byte_traitsIhEEEbSt17basic_string_viewIT_T0_ES6_(i64 %18, ptr %20, i64 %22, ptr %24) #15
  ret i1 %25
}

; Function Attrs: mustprogress nounwind uwtable
define linkonce_odr hidden noundef nonnull align 1 dereferenceable(1) ptr @_ZNKSt17basic_string_viewIhN4evmc11byte_traitsIhEEEixEm(ptr noundef nonnull align 8 dereferenceable(16) %0, i64 noundef %1) #0 comdat align 2 {
  %3 = alloca ptr, align 8
  %4 = alloca i64, align 8
  store ptr %0, ptr %3, align 8, !tbaa !22
  store i64 %1, ptr %4, align 8, !tbaa !8
  %5 = load ptr, ptr %3, align 8
  %6 = getelementptr inbounds nuw %"class.std::basic_string_view", ptr %5, i32 0, i32 1
  %7 = load ptr, ptr %6, align 8, !tbaa !54
  %8 = load i64, ptr %4, align 8, !tbaa !8
  %9 = getelementptr inbounds nuw i8, ptr %7, i64 %8
  ret ptr %9
}

; Function Attrs: mustprogress nounwind uwtable
define linkonce_odr hidden noundef i64 @_ZNKSt17basic_string_viewIhN4evmc11byte_traitsIhEEE4sizeEv(ptr noundef nonnull align 8 dereferenceable(16) %0) #0 comdat align 2 {
  %2 = alloca ptr, align 8
  store ptr %0, ptr %2, align 8, !tbaa !22
  %3 = load ptr, ptr %2, align 8
  %4 = getelementptr inbounds nuw %"class.std::basic_string_view", ptr %3, i32 0, i32 0
  %5 = load i64, ptr %4, align 8, !tbaa !77
  ret i64 %5
}

; Function Attrs: mustprogress nounwind uwtable
define noundef zeroext i1 @_ZN6evmone16is_eof_containerESt17basic_string_viewIhN4evmc11byte_traitsIhEEE(i64 %0, ptr %1) #0 {
  %3 = alloca %"class.std::basic_string_view", align 8
  %4 = alloca %"class.std::basic_string_view", align 8
  %5 = getelementptr inbounds nuw { i64, ptr }, ptr %3, i32 0, i32 0
  store i64 %0, ptr %5, align 8
  %6 = getelementptr inbounds nuw { i64, ptr }, ptr %3, i32 0, i32 1
  store ptr %1, ptr %6, align 8
  call void @llvm.memcpy.p0.p0.i64(ptr align 8 %4, ptr align 8 @_ZN6evmoneL9EOF_MAGICE, i64 16, i1 false), !tbaa.struct !26
  %7 = getelementptr inbounds nuw { i64, ptr }, ptr %4, i32 0, i32 0
  %8 = load i64, ptr %7, align 8
  %9 = getelementptr inbounds nuw { i64, ptr }, ptr %4, i32 0, i32 1
  %10 = load ptr, ptr %9, align 8
  %11 = call noundef zeroext i1 @_ZNKSt17basic_string_viewIhN4evmc11byte_traitsIhEEE11starts_withES3_(ptr noundef nonnull align 8 dereferenceable(16) %3, i64 %8, ptr %10) #15
  ret i1 %11
}

; Function Attrs: mustprogress nounwind uwtable
define hidden noundef zeroext i8 @_ZN6evmone15get_eof_versionESt17basic_string_viewIhN4evmc11byte_traitsIhEEE(i64 %0, ptr %1) #0 {
  %3 = alloca %"class.std::basic_string_view", align 8
  %4 = alloca %"class.std::basic_string_view", align 8
  %5 = getelementptr inbounds nuw { i64, ptr }, ptr %3, i32 0, i32 0
  store i64 %0, ptr %5, align 8
  %6 = getelementptr inbounds nuw { i64, ptr }, ptr %3, i32 0, i32 1
  store ptr %1, ptr %6, align 8
  call void @llvm.memcpy.p0.p0.i64(ptr align 8 %4, ptr align 8 %3, i64 16, i1 false), !tbaa.struct !26
  %7 = getelementptr inbounds nuw { i64, ptr }, ptr %4, i32 0, i32 0
  %8 = load i64, ptr %7, align 8
  %9 = getelementptr inbounds nuw { i64, ptr }, ptr %4, i32 0, i32 1
  %10 = load ptr, ptr %9, align 8
  %11 = call noundef zeroext i1 @_ZN6evmone16is_eof_containerESt17basic_string_viewIhN4evmc11byte_traitsIhEEE(i64 %8, ptr %10) #15
  br i1 %11, label %12, label %19

12:                                               ; preds = %2
  %13 = call noundef i64 @_ZNKSt17basic_string_viewIhN4evmc11byte_traitsIhEEE4sizeEv(ptr noundef nonnull align 8 dereferenceable(16) %3) #15
  %14 = icmp uge i64 %13, 3
  br i1 %14, label %15, label %19

15:                                               ; preds = %12
  %16 = call noundef nonnull align 1 dereferenceable(1) ptr @_ZNKSt17basic_string_viewIhN4evmc11byte_traitsIhEEEixEm(ptr noundef nonnull align 8 dereferenceable(16) %3, i64 noundef 2) #15
  %17 = load i8, ptr %16, align 1, !tbaa !29
  %18 = zext i8 %17 to i32
  br label %20

19:                                               ; preds = %12, %2
  br label %20

20:                                               ; preds = %19, %15
  %21 = phi i32 [ %18, %15 ], [ 0, %19 ]
  %22 = trunc i32 %21 to i8
  ret i8 %22
}