; Function Attrs: mustprogress nofree norecurse nosync nounwind willreturn memory(argmem: read) uwtable
define hidden noundef zeroext i8 @_ZN6evmone15get_eof_versionESt17basic_string_viewIhN4evmc11byte_traitsIhEEE(i64 %0, ptr readonly captures(none) %1) local_unnamed_addr #0 {
  %.not.i.i = icmp ult i64 %0, 2
  br i1 %.not.i.i, label %_ZN6evmone16is_eof_containerESt17basic_string_viewIhN4evmc11byte_traitsIhEEE.exit.thread, label %.lr.ph.i.i.i.i.i

.lr.ph.i.i.i.i.i:                                 ; preds = %2, %5
  %.0813.i.i.i.i.i.idx = phi i64 [ %.0813.i.i.i.i.i.add, %5 ], [ 0, %2 ]
  %.0912.i.i.i.i.i = phi ptr [ %6, %5 ], [ %1, %2 ]
  %.0813.i.i.i.i.i.ptr = getelementptr inbounds nuw i8, ptr @_ZN6evmoneL15EOF_MAGIC_BYTESE, i64 %.0813.i.i.i.i.i.idx
  %3 = load i8, ptr %.0912.i.i.i.i.i, align 1, !tbaa !14
  %4 = load i8, ptr %.0813.i.i.i.i.i.ptr, align 1, !tbaa !14
  %or.cond.not.i.i.i = icmp eq i8 %4, %3
  br i1 %or.cond.not.i.i.i, label %5, label %_ZN6evmone16is_eof_containerESt17basic_string_viewIhN4evmc11byte_traitsIhEEE.exit.thread

5:                                                ; preds = %.lr.ph.i.i.i.i.i
  %6 = getelementptr inbounds nuw i8, ptr %.0912.i.i.i.i.i, i64 1
  %.0813.i.i.i.i.i.add = add nuw nsw i64 %.0813.i.i.i.i.i.idx, 1
  %exitcond = icmp eq i64 %.0813.i.i.i.i.i.idx, 1
  br i1 %exitcond, label %_ZN6evmone16is_eof_containerESt17basic_string_viewIhN4evmc11byte_traitsIhEEE.exit, label %.lr.ph.i.i.i.i.i, !llvm.loop !15

_ZN6evmone16is_eof_containerESt17basic_string_viewIhN4evmc11byte_traitsIhEEE.exit: ; preds = %5
  %.not = icmp eq i64 %0, 2
  br i1 %.not, label %_ZN6evmone16is_eof_containerESt17basic_string_viewIhN4evmc11byte_traitsIhEEE.exit.thread, label %7

7:                                                ; preds = %_ZN6evmone16is_eof_containerESt17basic_string_viewIhN4evmc11byte_traitsIhEEE.exit
  %8 = getelementptr inbounds nuw i8, ptr %1, i64 2
  %9 = load i8, ptr %8, align 1, !tbaa !14
  br label %_ZN6evmone16is_eof_containerESt17basic_string_viewIhN4evmc11byte_traitsIhEEE.exit.thread

_ZN6evmone16is_eof_containerESt17basic_string_viewIhN4evmc11byte_traitsIhEEE.exit.thread: ; preds = %.lr.ph.i.i.i.i.i, %2, %_ZN6evmone16is_eof_containerESt17basic_string_viewIhN4evmc11byte_traitsIhEEE.exit, %7
  %10 = phi i8 [ %9, %7 ], [ 0, %_ZN6evmone16is_eof_containerESt17basic_string_viewIhN4evmc11byte_traitsIhEEE.exit ], [ 0, %2 ], [ 0, %.lr.ph.i.i.i.i.i ]
  ret i8 %10
}